target datalayout = "e-m:e-p270:32:32-p271:32:32-p272:64:64-i64:64-i128:128-f80:128-n8:16:32:64-S128"
target triple = "x86_64-pc-linux-gnu"

%struct.expert_field = type { i32, i32 }
%struct._packet_info = type { ptr, ptr, i32, i32, %struct.nstime_t, %struct.nstime_t, %struct.nstime_t, i8, ptr, ptr, ptr, ptr, %struct._address, %struct._address, %struct._address, %struct._address, %struct._address, %struct._address, i32, ptr, i8, [3 x i8], %struct.anon, i32, i32, i32, i32, ptr, i8, ptr, ptr, i16, i16, i32, i32, i16, i32, i32, ptr, ptr, ptr, i8, i8, i16, i16, i16, i32, i16, i16, ptr, ptr, ptr, ptr, ptr, i32, i32 }
%struct.nstime_t = type { i64, i32 }
%struct._address = type { i32, i32, ptr, ptr }
%struct.anon = type { i8, [3 x i8] }

@hf_aim_messageblock_featuresdes = internal global i32 0, align 4
@hf_aim_messageblock_featureslen = internal global i32 0, align 4
@hf_aim_messageblock_features = internal global i32 0, align 4
@hf_aim_messageblock_info = internal global i32 0, align 4
@hf_aim_messageblock_len = internal global i32 0, align 4
@hf_aim_messageblock_charset = internal global i32 0, align 4
@hf_aim_messageblock_charsubset = internal global i32 0, align 4
@hf_aim_messageblock_message = internal global i32 0, align 4
@ett_aim_messageblock = internal global i32 0, align 4
@ei_aim_messageblock_len = internal global %struct.expert_field zeroinitializer, align 4
@.str.868 = private unnamed_addr constant [13 x i8] c"Message: %s \00", align 1

; Function Attrs: null_pointer_is_valid sspstrong uwtable
define internal i32 @dissect_aim_tlv_value_messageblock(ptr noundef %0, i16 noundef zeroext %1, ptr noundef %2, ptr noundef %3) #0 {
  %5 = alloca ptr, align 8
  %6 = alloca i16, align 2
  %7 = alloca ptr, align 8
  %8 = alloca ptr, align 8
  %9 = alloca ptr, align 8
  %10 = alloca ptr, align 8
  %11 = alloca i16, align 2
  %12 = alloca i32, align 4
  %13 = alloca ptr, align 8
  %14 = alloca i32, align 4
  store ptr %0, ptr %5, align 8
  store i16 %1, ptr %6, align 2
  store ptr %2, ptr %7, align 8
  store ptr %3, ptr %8, align 8
  call void @llvm.lifetime.start.p0(i64 8, ptr %9) #13
  call void @llvm.lifetime.start.p0(i64 8, ptr %10) #13
  call void @llvm.lifetime.start.p0(i64 2, ptr %11) #13
  call void @llvm.lifetime.start.p0(i64 4, ptr %12) #13
  call void @llvm.lifetime.start.p0(i64 8, ptr %13) #13
  call void @llvm.lifetime.start.p0(i64 4, ptr %14) #13
  store i32 0, ptr %14, align 4
  %15 = load ptr, ptr %5, align 8
  %16 = load i32, ptr @ett_aim_messageblock, align 4
  %17 = call ptr @proto_item_add_subtree(ptr noundef %15, i32 noundef %16)
  store ptr %17, ptr %9, align 8
  %18 = load ptr, ptr %9, align 8
  %19 = load i32, ptr @hf_aim_messageblock_featuresdes, align 4
  %20 = load ptr, ptr %7, align 8
  %21 = load i32, ptr %14, align 4
  %22 = call ptr @proto_tree_add_item(ptr noundef %18, i32 noundef %19, ptr noundef %20, i32 noundef %21, i32 noundef 2, i32 noundef 0)
  %23 = load i32, ptr %14, align 4
  %24 = add i32 %23, 2
  store i32 %24, ptr %14, align 4
  %25 = load ptr, ptr %7, align 8
  %26 = load i32, ptr %14, align 4
  %27 = call zeroext i16 @tvb_get_ntohs(ptr noundef %25, i32 noundef %26)
  store i16 %27, ptr %11, align 2
  %28 = load ptr, ptr %9, align 8
  %29 = load i32, ptr @hf_aim_messageblock_featureslen, align 4
  %30 = load ptr, ptr %7, align 8
  %31 = load i32, ptr %14, align 4
  %32 = call ptr @proto_tree_add_item(ptr noundef %28, i32 noundef %29, ptr noundef %30, i32 noundef %31, i32 noundef 2, i32 noundef 0)
  %33 = load i32, ptr %14, align 4
  %34 = add i32 %33, 2
  store i32 %34, ptr %14, align 4
  %35 = load ptr, ptr %9, align 8
  %36 = load i32, ptr @hf_aim_messageblock_features, align 4
  %37 = load ptr, ptr %7, align 8
  %38 = load i32, ptr %14, align 4
  %39 = load i16, ptr %11, align 2
  %40 = zext i16 %39 to i32
  %41 = call ptr @proto_tree_add_item(ptr noundef %35, i32 noundef %36, ptr noundef %37, i32 noundef %38, i32 noundef %40, i32 noundef 0)
  %42 = load i16, ptr %11, align 2
  %43 = zext i16 %42 to i32
  %44 = load i32, ptr %14, align 4
  %45 = add i32 %44, %43
  store i32 %45, ptr %14, align 4
  br label %46

46:                                               ; preds = %70, %4
  %47 = load ptr, ptr %7, align 8
  %48 = load i32, ptr %14, align 4
  %49 = call i32 @tvb_reported_length_remaining(ptr noundef %47, i32 noundef %48)
  %50 = icmp sgt i32 %49, 0
  br i1 %50, label %51, label %115

51:                                               ; preds = %46
  %52 = load ptr, ptr %9, align 8
  %53 = load i32, ptr @hf_aim_messageblock_info, align 4
  %54 = load ptr, ptr %7, align 8
  %55 = load i32, ptr %14, align 4
  %56 = call ptr @proto_tree_add_item(ptr noundef %52, i32 noundef %53, ptr noundef %54, i32 noundef %55, i32 noundef 2, i32 noundef 0)
  %57 = load i32, ptr %14, align 4
  %58 = add i32 %57, 2
  store i32 %58, ptr %14, align 4
  %59 = load ptr, ptr %9, align 8
  %60 = load i32, ptr @hf_aim_messageblock_len, align 4
  %61 = load ptr, ptr %7, align 8
  %62 = load i32, ptr %14, align 4
  %63 = call ptr @proto_tree_add_item_ret_uint(ptr noundef %59, i32 noundef %60, ptr noundef %61, i32 noundef %62, i32 noundef 2, i32 noundef 0, ptr noundef %12)
  store ptr %63, ptr %13, align 8
  %64 = load i32, ptr %12, align 4
  %65 = icmp ule i32 %64, 4
  br i1 %65, label %66, label %70

66:                                               ; preds = %51
  %67 = load ptr, ptr %8, align 8
  %68 = load ptr, ptr %13, align 8
  %69 = call ptr @expert_add_info(ptr noundef %67, ptr noundef %68, ptr noundef @ei_aim_messageblock_len)
  br label %115

70:                                               ; preds = %51
  %71 = load i32, ptr %14, align 4
  %72 = add i32 %71, 2
  store i32 %72, ptr %14, align 4
  %73 = load ptr, ptr %9, align 8
  %74 = load i32, ptr @hf_aim_messageblock_charset, align 4
  %75 = load ptr, ptr %7, align 8
  %76 = load i32, ptr %14, align 4
  %77 = call ptr @proto_tree_add_item(ptr noundef %73, i32 noundef %74, ptr noundef %75, i32 noundef %76, i32 noundef 2, i32 noundef 0)
  %78 = load i32, ptr %14, align 4
  %79 = add i32 %78, 2
  store i32 %79, ptr %14, align 4
  %80 = load ptr, ptr %9, align 8
  %81 = load i32, ptr @hf_aim_messageblock_charsubset, align 4
  %82 = load ptr, ptr %7, align 8
  %83 = load i32, ptr %14, align 4
  %84 = call ptr @proto_tree_add_item(ptr noundef %80, i32 noundef %81, ptr noundef %82, i32 noundef %83, i32 noundef 2, i32 noundef 0)
  %85 = load i32, ptr %14, align 4
  %86 = add i32 %85, 2
  store i32 %86, ptr %14, align 4
  %87 = load ptr, ptr %8, align 8
  %88 = getelementptr inbounds nuw %struct._packet_info, ptr %87, i32 0, i32 51
  %89 = load ptr, ptr %88, align 8
  %90 = load ptr, ptr %7, align 8
  %91 = load i32, ptr %14, align 4
  %92 = load i32, ptr %12, align 4
  %93 = sub i32 %92, 4
  %94 = call ptr @tvb_get_string_enc(ptr noundef %89, ptr noundef %90, i32 noundef %91, i32 noundef %93, i32 noundef 0)
  store ptr %94, ptr %10, align 8
  %95 = load ptr, ptr %5, align 8
  %96 = load ptr, ptr %8, align 8
  %97 = getelementptr inbounds nuw %struct._packet_info, ptr %96, i32 0, i32 51
  %98 = load ptr, ptr %97, align 8
  %99 = load ptr, ptr %10, align 8
  %100 = load i32, ptr %12, align 4
  %101 = sub i32 %100, 4
  %102 = zext i32 %101 to i64
  %103 = call ptr @format_text(ptr noundef %98, ptr noundef %99, i64 noundef %102)
  call void (ptr, ptr, ...) @proto_item_append_text(ptr noundef %95, ptr noundef @.str.868, ptr noundef %103)
  %104 = load ptr, ptr %9, align 8
  %105 = load i32, ptr @hf_aim_messageblock_message, align 4
  %106 = load ptr, ptr %7, align 8
  %107 = load i32, ptr %14, align 4
  %108 = load i32, ptr %12, align 4
  %109 = sub i32 %108, 4
  %110 = call ptr @proto_tree_add_item(ptr noundef %104, i32 noundef %105, ptr noundef %106, i32 noundef %107, i32 noundef %109, i32 noundef 0)
  %111 = load i32, ptr %12, align 4
  %112 = sub i32 %111, 4
  %113 = load i32, ptr %14, align 4
  %114 = add i32 %113, %112
  store i32 %114, ptr %14, align 4
  br label %46, !llvm.loop !38

115:                                              ; preds = %66, %46
  %116 = load i32, ptr %14, align 4
  call void @llvm.lifetime.end.p0(i64 4, ptr %14) #13
  call void @llvm.lifetime.end.p0(i64 8, ptr %13) #13
  call void @llvm.lifetime.end.p0(i64 4, ptr %12) #13
  call void @llvm.lifetime.end.p0(i64 2, ptr %11) #13
  call void @llvm.lifetime.end.p0(i64 8, ptr %10) #13
  call void @llvm.lifetime.end.p0(i64 8, ptr %9) #13
  ret i32 %116
}