; Function Attrs: null_pointer_is_valid sspstrong uwtable
define internal noundef i32 @dissect_aim_tlv_value_messageblock(ptr noundef %0, i16 zeroext %1, ptr noundef %2, ptr noundef %3) #0 {
  %5 = alloca i32, align 4
  call void @llvm.lifetime.start.p0(i64 4, ptr nonnull %5) #11
  %6 = load i32, ptr @ett_aim_messageblock, align 4
  %7 = tail call ptr @proto_item_add_subtree(ptr noundef %0, i32 noundef %6)
  %8 = load i32, ptr @hf_aim_messageblock_featuresdes, align 4
  %9 = tail call ptr @proto_tree_add_item(ptr noundef %7, i32 noundef %8, ptr noundef %2, i32 noundef 0, i32 noundef 2, i32 noundef 0)
  %10 = tail call zeroext i16 @tvb_get_ntohs(ptr noundef %2, i32 noundef 2)
  %11 = load i32, ptr @hf_aim_messageblock_featureslen, align 4
  %12 = tail call ptr @proto_tree_add_item(ptr noundef %7, i32 noundef %11, ptr noundef %2, i32 noundef 2, i32 noundef 2, i32 noundef 0)
  %13 = load i32, ptr @hf_aim_messageblock_features, align 4
  %14 = zext i16 %10 to i32
  %15 = tail call ptr @proto_tree_add_item(ptr noundef %7, i32 noundef %13, ptr noundef %2, i32 noundef 4, i32 noundef %14, i32 noundef 0)
  %16 = add nuw nsw i32 %14, 4
  %17 = tail call i32 @tvb_reported_length_remaining(ptr noundef %2, i32 noundef %16)
  %18 = icmp sgt i32 %17, 0
  br i1 %18, label %.lr.ph, label %.loopexit

.lr.ph:                                           ; preds = %4
  %19 = getelementptr inbounds nuw i8, ptr %3, i64 408
  br label %20

20:                                               ; preds = %.lr.ph, %30
  %.049 = phi i32 [ %16, %.lr.ph ], [ %52, %30 ]
  %21 = load i32, ptr @hf_aim_messageblock_info, align 4
  %22 = call ptr @proto_tree_add_item(ptr noundef %7, i32 noundef %21, ptr noundef %2, i32 noundef %.049, i32 noundef 2, i32 noundef 0)
  %23 = add i32 %.049, 2
  %24 = load i32, ptr @hf_aim_messageblock_len, align 4
  %25 = call ptr @proto_tree_add_item_ret_uint(ptr noundef %7, i32 noundef %24, ptr noundef %2, i32 noundef %23, i32 noundef 2, i32 noundef 0, ptr noundef nonnull %5)
  %26 = load i32, ptr %5, align 4
  %27 = icmp ult i32 %26, 5
  br i1 %27, label %28, label %30

28:                                               ; preds = %20
  %29 = call ptr @expert_add_info(ptr noundef %3, ptr noundef %25, ptr noundef nonnull @ei_aim_messageblock_len)
  br label %.loopexit

30:                                               ; preds = %20
  %31 = add i32 %.049, 4
  %32 = load i32, ptr @hf_aim_messageblock_charset, align 4
  %33 = call ptr @proto_tree_add_item(ptr noundef %7, i32 noundef %32, ptr noundef %2, i32 noundef %31, i32 noundef 2, i32 noundef 0)
  %34 = add i32 %.049, 6
  %35 = load i32, ptr @hf_aim_messageblock_charsubset, align 4
  %36 = call ptr @proto_tree_add_item(ptr noundef %7, i32 noundef %35, ptr noundef %2, i32 noundef %34, i32 noundef 2, i32 noundef 0)
  %37 = add i32 %.049, 8
  %38 = load ptr, ptr %19, align 8
  %39 = load i32, ptr %5, align 4
  %40 = add i32 %39, -4
  %41 = call ptr @tvb_get_string_enc(ptr noundef %38, ptr noundef %2, i32 noundef %37, i32 noundef %40, i32 noundef 0)
  %42 = load ptr, ptr %19, align 8
  %43 = load i32, ptr %5, align 4
  %44 = add i32 %43, -4
  %45 = zext i32 %44 to i64
  %46 = call ptr @format_text(ptr noundef %42, ptr noundef %41, i64 noundef %45)
  call void (ptr, ptr, ...) @proto_item_append_text(ptr noundef %0, ptr noundef nonnull @.str.868, ptr noundef %46)
  %47 = load i32, ptr @hf_aim_messageblock_message, align 4
  %48 = load i32, ptr %5, align 4
  %49 = add i32 %48, -4
  %50 = call ptr @proto_tree_add_item(ptr noundef %7, i32 noundef %47, ptr noundef %2, i32 noundef %37, i32 noundef %49, i32 noundef 0)
  %51 = load i32, ptr %5, align 4
  %52 = add i32 %31, %51
  %53 = call i32 @tvb_reported_length_remaining(ptr noundef %2, i32 noundef %52)
  %54 = icmp sgt i32 %53, 0
  br i1 %54, label %20, label %.loopexit, !llvm.loop !38

.loopexit:                                        ; preds = %30, %4, %28
  %.1 = phi i32 [ %23, %28 ], [ %16, %4 ], [ %52, %30 ]
  call void @llvm.lifetime.end.p0(i64 4, ptr nonnull %5) #11
  ret i32 %.1
}